Certificate:
    Data:
        Version: 3 (0x2)
        Serial Number: 4096 (0x1000)
        Signature Algorithm: sha256WithRSAEncryption
        Issuer: C=BN, ST=Dhaka, L=Vatara, O=Deeni Community Inc, OU=SWE Deeni Community, CN=Deeni Community Root CA/emailAddress=admin@deeni.community
        Validity
            Not Before: Mar  4 06:12:26 2026 GMT
            Not After : Mar  4 06:12:26 2027 GMT
        Subject: C=BN, ST=Sylhet, O=Sports Club, OU=MB Sports, CN=example.com/emailAddress=admin@example.com
        Subject Public Key Info:
            Public Key Algorithm: rsaEncryption
                Public-Key: (1024 bit)
                Modulus:
                    00:a4:9f:90:94:92:55:49:b2:53:2c:ea:23:67:ae:
                    90:bb:f9:f3:13:d8:02:01:f9:30:38:80:5c:be:b2:
                    0e:c2:dd:ab:70:d7:9b:96:b6:d9:99:f1:b9:15:23:
                    25:2d:fe:0b:87:b3:97:7f:c6:af:11:1d:24:85:dd:
                    23:3e:ef:dc:de:be:b5:6f:f7:24:13:12:c3:5d:f9:
                    7d:9e:7a:f2:ed:f0:c4:fe:02:5a:b5:ef:c1:5e:fe:
                    ff:63:4f:b7:a1:f5:be:d9:c3:71:d5:f4:bc:cf:67:
                    72:53:c0:fc:d8:8b:e6:17:84:62:eb:03:44:0e:6e:
                    8c:c4:d8:46:26:e1:bd:c3:5b
                Exponent: 65537 (0x10001)
        X509v3 extensions:
            X509v3 Basic Constraints: 
                CA:FALSE
            X509v3 Subject Key Identifier: 
                F5:C3:27:21:A3:15:07:0B:AB:62:10:C6:8A:9C:B4:51:50:99:40:C1
            X509v3 Authority Key Identifier: 
                D1:4C:CB:11:8C:BF:20:DF:98:38:39:27:05:43:F1:75:37:63:65:DB
    Signature Algorithm: sha256WithRSAEncryption
    Signature Value:
        c4:cc:97:c4:d1:fd:00:fd:09:2f:2a:51:fb:e5:94:d9:b7:29:
        a1:6c:90:05:51:3b:80:6b:07:d4:a5:84:9f:b8:ef:8b:85:d9:
        b2:db:63:4b:01:40:3b:55:59:57:26:4e:04:9b:8f:fa:fe:67:
        8d:a6:0a:7f:5f:b2:9e:5d:5c:3b:8f:f6:ca:98:1a:be:5b:6b:
        25:50:9a:80:ab:1e:53:de:1a:34:38:aa:25:fc:1e:2e:90:f0:
        96:5a:7c:aa:ee:e5:d7:3e:aa:32:20:12:ef:c7:44:1e:28:04:
        68:a8:72:ef:33:7e:96:18:dd:21:22:7a:45:07:62:3f:40:42:
        aa:86:88:2a:89:22:6e:77:f3:58:6a:8f:8a:72:71:d4:5a:69:
        8b:85:92:ff:8f:9e:3a:e3:b7:91:61:d8:74:c0:50:d1:1a:1e:
        b2:e2:dd:f0:17:e2:33:37:c8:eb:2d:f5:e9:2f:da:bf:46:77:
        2a:13:57:30:18:7b:c8:43:8d:cc:f6:db:ae:d2:09:32:0e:4e:
        3d:af:a5:6d:ee:07:96:1e:59:a1:2e:e9:53:b7:88:df:e3:76:
        1d:61:66:7a:21:7c:43:64:a3:ce:04:58:fd:b1:67:47:1c:f1:
        64:8f:8c:0a:ef:b7:f7:c3:8f:39:c1:a1:e8:aa:34:14:32:7c:
        fd:c6:b2:38
-----BEGIN CERTIFICATE-----
MIIDeTCCAmGgAwIBAgICEAAwDQYJKoZIhvcNAQELBQAwgbIxCzAJBgNVBAYTAkJO
MQ4wDAYDVQQIDAVEaGFrYTEPMA0GA1UEBwwGVmF0YXJhMRwwGgYDVQQKDBNEZWVu
aSBDb21tdW5pdHkgSW5jMRwwGgYDVQQLDBNTV0UgRGVlbmkgQ29tbXVuaXR5MSAw
HgYDVQQDDBdEZWVuaSBDb21tdW5pdHkgUm9vdCBDQTEkMCIGCSqGSIb3DQEJARYV
YWRtaW5AZGVlbmkuY29tbXVuaXR5MB4XDTI2MDMwNDA2MTIyNloXDTI3MDMwNDA2
MTIyNlowgYAxCzAJBgNVBAYTAkJOMQ8wDQYDVQQIDAZTeWxoZXQxFDASBgNVBAoM
C1Nwb3J0cyBDbHViMRIwEAYDVQQLDAlNQiBTcG9ydHMxFDASBgNVBAMMC2V4YW1w
bGUuY29tMSAwHgYJKoZIhvcNAQkBFhFhZG1pbkBleGFtcGxlLmNvbTCBnzANBgkq
hkiG9w0BAQEFAAOBjQAwgYkCgYEApJ+QlJJVSbJTLOojZ66Qu/nzE9gCAfkwOIBc
vrIOwt2rcNeblrbZmfG5FSMlLf4Lh7OXf8avER0khd0jPu/c3r61b/ckExLDXfl9
nnry7fDE/gJate/BXv7/Y0+3ofW+2cNx1fS8z2dyU8D82IvmF4Ri6wNEDm6MxNhG
JuG9w1sCAwEAAaNNMEswCQYDVR0TBAIwADAdBgNVHQ4EFgQU9cMnIaMVBwurYhDG
ipy0UVCZQMEwHwYDVR0jBBgwFoAU0UzLEYy/IN+YODknBUPxdTdjZdswDQYJKoZI
hvcNAQELBQADggEBAMTMl8TR/QD9CS8qUfvllNm3KaFskAVRO4BrB9SlhJ+474uF
2bLbY0sBQDtVWVcmTgSbj/r+Z42mCn9fsp5dXDuP9sqYGr5bayVQmoCrHlPeGjQ4
qiX8Hi6Q8JZafKru5dc+qjIgEu/HRB4oBGiocu8zfpYY3SEiekUHYj9AQqqGiCqJ
Im5381hqj4pycdRaaYuFkv+Pnjrjt5Fh2HTAUNEaHrLi3fAX4jM3yOst9ekv2r9G
dyoTVzAYe8hDjcz2267SCTIOTj2vpW3uB5YeWaEu6VO3iN/jdh1hZnohfENko84E
WP2xZ0cc8WSPjArvt/fDjznBoeiqNBQyfP3Gsjg=
-----END CERTIFICATE-----
