Certificate:
    Data:
        Version: 3 (0x2)
        Serial Number: 4098 (0x1002)
        Signature Algorithm: sha256WithRSAEncryption
        Issuer: C=BN, ST=Dhaka, L=Vatara, O=Deeni Community Inc, OU=SWE Deeni Community, CN=Deeni Community Root CA/emailAddress=admin@deeni.community
        Validity
            Not Before: Mar  4 08:49:55 2026 GMT
            Not After : Mar  4 08:49:55 2027 GMT
        Subject: C=BN, ST=Dhaka, O=Helath Inc, OU=Finess MB, CN=webserverlab.com/emailAddress=admin@webserverlab.com
        Subject Public Key Info:
            Public Key Algorithm: rsaEncryption
                Public-Key: (2048 bit)
                Modulus:
                    00:b3:1f:1d:46:d2:51:f0:5e:01:29:26:82:f5:d7:
                    e2:2d:ce:5f:fd:73:d4:29:c1:3a:e8:39:ae:8b:36:
                    b1:2a:7e:e3:d4:b2:d2:22:e7:81:11:3c:95:be:a4:
                    59:0b:10:dd:de:2f:aa:87:97:1c:aa:44:46:b6:02:
                    64:96:3b:34:fa:46:30:14:29:1c:30:97:a8:ac:94:
                    33:b0:63:24:b9:88:44:b7:b5:cf:28:c2:40:54:95:
                    80:0a:50:5d:2c:24:7b:93:c1:4f:be:2b:16:1a:fc:
                    d4:eb:6e:1e:85:e4:30:98:67:af:88:60:8f:16:43:
                    0e:72:c7:01:1a:09:2a:17:89:8e:79:00:eb:09:de:
                    71:23:63:c3:20:75:1a:81:b5:d4:62:b6:37:40:91:
                    b3:94:3f:3b:d0:b6:a3:10:41:f1:33:a1:bd:81:ac:
                    03:8f:36:86:1e:c3:c3:2e:ce:38:e5:ae:65:33:90:
                    96:65:45:f4:82:74:73:b1:3b:20:8e:bf:ce:41:9e:
                    66:ca:c2:d4:b2:d3:29:fb:a1:b8:ab:b6:82:31:64:
                    53:40:f5:42:c9:e9:9f:e2:fa:d5:b8:57:f6:f4:74:
                    50:82:35:c6:4b:34:ca:55:30:4a:df:dc:84:e6:f7:
                    4f:07:05:06:ba:a3:08:96:2c:7f:4d:ee:20:4d:c8:
                    d5:23
                Exponent: 65537 (0x10001)
        X509v3 extensions:
            X509v3 Basic Constraints: 
                CA:FALSE
            X509v3 Subject Key Identifier: 
                5F:68:7E:43:D6:32:BC:09:2D:1B:EA:C7:B5:91:A4:C7:CC:D2:86:75
            X509v3 Authority Key Identifier: 
                D1:4C:CB:11:8C:BF:20:DF:98:38:39:27:05:43:F1:75:37:63:65:DB
    Signature Algorithm: sha256WithRSAEncryption
    Signature Value:
        ab:8e:11:e3:94:23:3c:f0:19:83:7f:78:1f:31:e2:6a:2a:e3:
        77:c4:4c:d7:9d:75:b7:aa:56:2c:73:2a:bc:19:72:72:b5:24:
        c4:b9:18:bf:78:24:4a:a5:26:f5:a8:32:2f:45:b6:6a:71:b0:
        ad:58:c5:74:5d:62:20:17:64:04:32:d1:37:34:1b:3c:0a:b2:
        ae:d3:8e:67:77:84:32:de:10:ca:55:a8:d7:7b:1b:72:1c:3b:
        1f:bb:92:35:f5:0b:49:68:84:1b:ea:2e:02:d8:dc:72:70:3d:
        c1:ca:75:d2:fd:ff:f6:0f:2b:ae:1c:6f:cc:1a:a3:ed:84:9f:
        f3:70:65:13:c3:2b:dc:c9:3d:b2:04:5b:15:10:ba:25:df:76:
        5c:68:42:b6:d6:4b:73:7e:84:e6:d1:b5:bf:2d:4b:5d:30:91:
        90:6f:6c:32:a2:97:54:f5:38:b8:54:2d:cb:52:06:8e:54:7a:
        cd:fc:ae:6d:95:a7:0f:34:8e:60:ac:d8:2e:af:16:7d:02:f5:
        9a:94:b6:c9:8a:2a:f1:a0:f1:5a:73:3b:17:2f:82:1e:3e:45:
        a4:56:30:6f:4b:a8:96:54:16:d1:19:f2:85:d8:fd:ee:92:03:
        69:b1:cf:df:77:bb:78:3e:b7:21:7c:29:36:9a:5e:00:7b:10:
        c2:7b:e0:f3
-----BEGIN CERTIFICATE-----
MIIEBTCCAu2gAwIBAgICEAIwDQYJKoZIhvcNAQELBQAwgbIxCzAJBgNVBAYTAkJO
MQ4wDAYDVQQIDAVEaGFrYTEPMA0GA1UEBwwGVmF0YXJhMRwwGgYDVQQKDBNEZWVu
aSBDb21tdW5pdHkgSW5jMRwwGgYDVQQLDBNTV0UgRGVlbmkgQ29tbXVuaXR5MSAw
HgYDVQQDDBdEZWVuaSBDb21tdW5pdHkgUm9vdCBDQTEkMCIGCSqGSIb3DQEJARYV
YWRtaW5AZGVlbmkuY29tbXVuaXR5MB4XDTI2MDMwNDA4NDk1NVoXDTI3MDMwNDA4
NDk1NVowgYgxCzAJBgNVBAYTAkJOMQ4wDAYDVQQIDAVEaGFrYTETMBEGA1UECgwK
SGVsYXRoIEluYzESMBAGA1UECwwJRmluZXNzIE1CMRkwFwYDVQQDDBB3ZWJzZXJ2
ZXJsYWIuY29tMSUwIwYJKoZIhvcNAQkBFhZhZG1pbkB3ZWJzZXJ2ZXJsYWIuY29t
MIIBIjANBgkqhkiG9w0BAQEFAAOCAQ8AMIIBCgKCAQEAsx8dRtJR8F4BKSaC9dfi
Lc5f/XPUKcE66DmuizaxKn7j1LLSIueBETyVvqRZCxDd3i+qh5ccqkRGtgJkljs0
+kYwFCkcMJeorJQzsGMkuYhEt7XPKMJAVJWAClBdLCR7k8FPvisWGvzU624eheQw
mGeviGCPFkMOcscBGgkqF4mOeQDrCd5xI2PDIHUagbXUYrY3QJGzlD870LajEEHx
M6G9gawDjzaGHsPDLs445a5lM5CWZUX0gnRzsTsgjr/OQZ5mysLUstMp+6G4q7aC
MWRTQPVCyemf4vrVuFf29HRQgjXGSzTKVTBK39yE5vdPBwUGuqMIlix/Te4gTcjV
IwIDAQABo00wSzAJBgNVHRMEAjAAMB0GA1UdDgQWBBRfaH5D1jK8CS0b6se1kaTH
zNKGdTAfBgNVHSMEGDAWgBTRTMsRjL8g35g4OScFQ/F1N2Nl2zANBgkqhkiG9w0B
AQsFAAOCAQEAq44R45QjPPAZg394HzHiairjd8RM1511t6pWLHMqvBlycrUkxLkY
v3gkSqUm9agyL0W2anGwrVjFdF1iIBdkBDLRNzQbPAqyrtOOZ3eEMt4QylWo13sb
chw7H7uSNfULSWiEG+ouAtjccnA9wcp10v3/9g8rrhxvzBqj7YSf83BlE8Mr3Mk9
sgRbFRC6Jd92XGhCttZLc36E5tG1vy1LXTCRkG9sMqKXVPU4uFQty1IGjlR6zfyu
bZWnDzSOYKzYLq8WfQL1mpS2yYoq8aDxWnM7Fy+CHj5FpFYwb0uollQW0Rnyhdj9
7pIDabHP33e7eD63IXwpNppeAHsQwnvg8w==
-----END CERTIFICATE-----
