-----BEGIN ENCRYPTED PRIVATE KEY-----
MIIFHDBOBgkqhkiG9w0BBQ0wQTApBgkqhkiG9w0BBQwwHAQIQIJHxXsdj0ACAggA
MAwGCCqGSIb3DQIJBQAwFAYIKoZIhvcNAwcECLw+wa6MtFcEBIIEyE2YrFpU0ID8
QfgbBO0i6MdIDiOj2gheECu+zKxHuRl5nYGRbqat0ZBYVBZAls8APrmA2UuTN2Ns
zLYZyat15YRPd4DJNKEY4Lmz70Pz2FqlrBXv4R5mbf2rioQb56Sz9ceKLdtaS8e1
eameB19eZt7Wa/dxSK5iDSj4Ysgiakqp3xPq97htVWjRj7ecFLwauazWC5yjl+MI
ew+FyBXYAkr45kyXtt2Nt6Up3hiv1Qw/wJmpKuoms0pTuW81N8EA+1v3CK8Ss9Qq
eVbn9zpmi7nRPs9shw7aOVbA4WXmQWHY+vrBI1InCvoo5+Gzbql8rEMh0YMv5Kf4
eARbNkaUlfu1ElIDQIpGs1QEkMUOfpotAfikpGLaQoM4ug0LkXCOe2511EMDGtJu
sBHzMgOnU63H6a/p46CX/oDeTWsbkeR1TsQ8+HhgFrP8eurgQkW9t149woX2YLFk
CH3/9haxf3LZz5WdYM57qgBbE3lJGJYw0+eg93ZNPjvkLkZ7TzXShzSZfxKe6tqg
L8gw+IBYYKC/50KVOy2l+EaRt2Km0OgRDfUtgAMxyOf4pWiYtxkd7iAqQ3DVCvSR
ot5QeXjq/BxLvkVCp/uJqtj8NlWStcSiJNWauG4X2FDdPwbdgT87yKEgjxC4Zlyz
0CIKUSEi0yfGeYvq6l1GsHK6WQiDttg+zscYwoyRI+hbXjVlK2cC/g6jCSKtmo66
l5jK594PXIEwtGVxdK3IN1Ik9nwxRrFLthTKe9EVllepFe6RWCPz3vcxGFCWNPjh
aQ4bcJAayWnTqYj8wo9JWwbG8sSGV9/u+q+i5YFGCYP50Y9E2SayT4QAzdkZedxK
enyF+8V4T0wvnufmmcmixjTwEuNR9RdMw82ErhCBkTHxD9ZChMXnka0vzJ/etqvo
ZeMK7+8RM15jsWAIJ/iLydQJSOJeVpbauyguio2yPWR7XmZY5OxKqdOrRIpvE09w
QzXUpdB6BabugftCgSXbG+HxmjuKdGjXU+jNyphy/p5KnWuQp+vLJC5IjZcV5s71
5LPlb/hF8BFl8xqURzx+mr0NKCHi+ghr9YCL1vaX+D4LVFOaf5YAjgxPS7Xhrg5u
oFvZB9hJg5oLA6QNKbuuYlhGxe4wifDtYMysKvThB5lAENO8R4u8oFWb2jJnLGW0
/ww8A9guUXzxsJsUt8587mCmES4DmwIKEnNZFHFwslS9e0IDF9ZiatYm3rzPZp/7
2a29EqkMdpAlx1XeQvQsFWvqSAPZrUN3HCSNe4RCWXwcIWCdQPqe+SCbISmWQm8s
WHPJKAeKz2zUZfZun8ESVHBrVCUx5pcwflNi77YXSAyL8XJURvnhmge9ZF3Eq1T+
2ImBnuD5HDDQnyVIvCOh5DSqQl3bGPUetgi262MfLvVQn6xo/wCaU7P47JwNDazN
eYj/9PdMEGsl1FeXPfyrNvYMVqTQEFPJqd8ByadKwR5h7QytL2hTgvNluQ/o3GXW
YomGkSgpQqpLu0zBmy97qwPAYjJYoy0EhlRtykNkaGOAWdzZm77H9ozPKSc3Twjr
oJbZQUVvdEkIbFQpa7cu0LVtZ7CijwU+1mHVqqG8Ul3q59WXmPnShMJEfhrsgmIX
TtANQQTA97TW1a+G8MCqgA==
-----END ENCRYPTED PRIVATE KEY-----
Certificate:
    Data:
        Version: 3 (0x2)
        Serial Number: 4097 (0x1001)
        Signature Algorithm: sha256WithRSAEncryption
        Issuer: C=BN, ST=Dhaka, L=Vatara, O=Deeni Community Inc, OU=SWE Deeni Community, CN=Deeni Community Root CA/emailAddress=admin@deeni.community
        Validity
            Not Before: Mar  4 06:34:56 2026 GMT
            Not After : Mar  4 06:34:56 2027 GMT
        Subject: C=BN, ST=Dhaka, O=Sports Club, OU=MB Sports, CN=example.com/emailAddress=admin@example.com
        Subject Public Key Info:
            Public Key Algorithm: rsaEncryption
                Public-Key: (2048 bit)
                Modulus:
                    00:ba:a2:b4:14:8e:98:2d:f0:a4:7e:f6:6e:a6:1c:
                    c6:f2:04:5e:4c:35:6a:3f:a3:a4:c8:cd:56:61:f8:
                    3a:e5:68:06:b1:a1:37:0b:c5:2b:49:cc:b1:c3:85:
                    d1:88:3e:f3:b8:ce:72:88:91:e0:93:7c:e5:1d:b7:
                    10:d9:f1:3d:a7:5e:ee:70:eb:0d:a3:12:18:8b:8a:
                    94:e4:08:87:46:ce:c2:d7:24:6a:79:62:d2:e4:e3:
                    dc:fb:46:a2:b2:4b:de:f8:9f:cb:73:76:23:f4:67:
                    8c:b0:4f:34:83:ab:06:20:66:bf:27:ad:12:1a:a8:
                    d1:d1:b5:70:fd:ed:0d:21:24:cc:f4:4f:9f:4d:fb:
                    0c:90:47:5f:4b:10:f4:66:b9:a0:10:d0:0f:c1:b4:
                    47:e1:4e:02:8b:03:47:25:36:4c:5e:05:ec:ec:12:
                    3b:e4:32:41:c5:81:86:2d:4b:fb:66:34:ad:d4:12:
                    5b:7d:7c:25:f1:5b:3f:3b:fd:56:83:3a:b3:5d:0c:
                    92:4d:75:91:9c:bf:d3:f8:93:1d:8d:aa:a9:0f:f9:
                    e1:79:46:9c:5d:cc:bb:71:56:ae:0c:45:3b:7c:e6:
                    b7:b1:5f:0e:8e:be:6b:a9:2c:8b:a3:b9:73:76:91:
                    95:46:f9:73:50:6b:21:8a:5a:c3:3b:e8:78:0b:a8:
                    64:f1
                Exponent: 65537 (0x10001)
        X509v3 extensions:
            X509v3 Basic Constraints: 
                CA:FALSE
            X509v3 Subject Key Identifier: 
                6F:16:F7:75:B9:21:BE:E2:70:6A:81:FE:10:8C:66:ED:0A:2B:08:E0
            X509v3 Authority Key Identifier: 
                D1:4C:CB:11:8C:BF:20:DF:98:38:39:27:05:43:F1:75:37:63:65:DB
    Signature Algorithm: sha256WithRSAEncryption
    Signature Value:
        b9:7a:5b:31:e4:a0:b0:b2:32:4f:e2:ae:3e:f0:ba:1a:ee:c3:
        fd:77:61:45:95:d1:72:b2:d7:eb:ad:29:d1:33:13:58:9f:c4:
        0c:11:f6:76:4b:04:b9:72:ff:66:a4:15:8d:6b:d7:ad:32:21:
        f6:1d:11:61:22:9a:01:7a:9c:11:80:27:ae:2c:7d:e6:61:02:
        50:7a:22:14:f3:84:9a:f2:bd:8f:46:bb:f2:d9:39:08:f4:8f:
        9f:aa:13:14:a0:2a:0d:a0:54:33:4e:3d:62:05:6b:b7:7b:94:
        bf:a1:e5:0d:89:7f:71:1e:b4:5a:f1:46:6a:22:d7:18:28:5c:
        98:44:15:a9:e8:71:69:30:ae:dd:10:e1:52:ed:a9:d2:e4:61:
        89:b9:44:a4:47:e8:ca:df:5d:16:6c:1d:32:20:bf:09:e3:73:
        66:4e:5d:64:a5:22:d9:72:ae:e5:41:60:ea:1f:69:00:b1:22:
        22:77:b0:71:be:ec:38:f3:fe:c9:e0:ba:89:e5:57:d7:dd:73:
        f4:e4:6c:a8:19:0d:f1:43:5c:d8:17:0b:05:e6:7e:cd:63:b0:
        3e:31:f8:73:ca:29:c6:77:9b:38:9e:ab:45:ba:12:e2:06:c6:
        f2:07:aa:2c:a1:f6:7e:a4:58:40:fe:9a:cb:51:a7:f8:4c:a7:
        13:e5:3d:f6
-----BEGIN CERTIFICATE-----
MIID+zCCAuOgAwIBAgICEAEwDQYJKoZIhvcNAQELBQAwgbIxCzAJBgNVBAYTAkJO
MQ4wDAYDVQQIDAVEaGFrYTEPMA0GA1UEBwwGVmF0YXJhMRwwGgYDVQQKDBNEZWVu
aSBDb21tdW5pdHkgSW5jMRwwGgYDVQQLDBNTV0UgRGVlbmkgQ29tbXVuaXR5MSAw
HgYDVQQDDBdEZWVuaSBDb21tdW5pdHkgUm9vdCBDQTEkMCIGCSqGSIb3DQEJARYV
YWRtaW5AZGVlbmkuY29tbXVuaXR5MB4XDTI2MDMwNDA2MzQ1NloXDTI3MDMwNDA2
MzQ1NlowfzELMAkGA1UEBhMCQk4xDjAMBgNVBAgMBURoYWthMRQwEgYDVQQKDAtT
cG9ydHMgQ2x1YjESMBAGA1UECwwJTUIgU3BvcnRzMRQwEgYDVQQDDAtleGFtcGxl
LmNvbTEgMB4GCSqGSIb3DQEJARYRYWRtaW5AZXhhbXBsZS5jb20wggEiMA0GCSqG
SIb3DQEBAQUAA4IBDwAwggEKAoIBAQC6orQUjpgt8KR+9m6mHMbyBF5MNWo/o6TI
zVZh+DrlaAaxoTcLxStJzLHDhdGIPvO4znKIkeCTfOUdtxDZ8T2nXu5w6w2jEhiL
ipTkCIdGzsLXJGp5YtLk49z7RqKyS974n8tzdiP0Z4ywTzSDqwYgZr8nrRIaqNHR
tXD97Q0hJMz0T59N+wyQR19LEPRmuaAQ0A/BtEfhTgKLA0clNkxeBezsEjvkMkHF
gYYtS/tmNK3UElt9fCXxWz87/VaDOrNdDJJNdZGcv9P4kx2NqqkP+eF5RpxdzLtx
Vq4MRTt85rexXw6OvmupLIujuXN2kZVG+XNQayGKWsM76HgLqGTxAgMBAAGjTTBL
MAkGA1UdEwQCMAAwHQYDVR0OBBYEFG8W93W5Ib7icGqB/hCMZu0KKwjgMB8GA1Ud
IwQYMBaAFNFMyxGMvyDfmDg5JwVD8XU3Y2XbMA0GCSqGSIb3DQEBCwUAA4IBAQC5
elsx5KCwsjJP4q4+8Loa7sP9d2FFldFystfrrSnRMxNYn8QMEfZ2SwS5cv9mpBWN
a9etMiH2HRFhIpoBepwRgCeuLH3mYQJQeiIU84Sa8r2PRrvy2TkI9I+fqhMUoCoN
oFQzTj1iBWu3e5S/oeUNiX9xHrRa8UZqItcYKFyYRBWp6HFpMK7dEOFS7anS5GGJ
uUSkR+jK310WbB0yIL8J43NmTl1kpSLZcq7lQWDqH2kAsSIid7Bxvuw48/7J4LqJ
5VfX3XP05GyoGQ3xQ1zYFwsF5n7NY7A+MfhzyinGd5s4nqtFuhLiBsbyB6osofZ+
pFhA/prLUaf4TKcT5T32
-----END CERTIFICATE-----
